; ModuleID = '33/3086.c'
source_filename = "33/3086.c"
target datalayout = "e-m:e-p270:32:32-p271:32:32-p272:64:64-i64:64-f80:128-n8:16:32:64-S128"
target triple = "x86_64-pc-linux-gnu"

@.str = private unnamed_addr constant [3 x i8] c"%d\00", align 1
@.str.1 = private unnamed_addr constant [3 x i8] c"%s\00", align 1
@.str.2 = private unnamed_addr constant [4 x i8] c"%s\0A\00", align 1

; Function Attrs: noinline nounwind uwtable
define dso_local i32 @main() #0 {
  %1 = alloca i32, align 4
  %2 = alloca i32, align 4
  %3 = alloca i32, align 4
  %4 = alloca [256 x i8], align 16
  %5 = alloca i8*, align 8
  store i32 0, i32* %1, align 4
  %6 = call i32 (i8*, ...) @__isoc99_scanf(i8* getelementptr inbounds ([3 x i8], [3 x i8]* @.str, i64 0, i64 0), i32* %2)
  store i32 0, i32* %3, align 4
  br label %7

7:                                                ; preds = %82, %0
  %8 = load i32, i32* %3, align 4
  %9 = load i32, i32* %2, align 4
  %10 = icmp slt i32 %8, %9
  br i1 %10, label %11, label %85

11:                                               ; preds = %7
  %12 = getelementptr inbounds [256 x i8], [256 x i8]* %4, i64 0, i64 0
  %13 = call i32 (i8*, ...) @__isoc99_scanf(i8* getelementptr inbounds ([3 x i8], [3 x i8]* @.str.1, i64 0, i64 0), i8* %12)
  %14 = getelementptr inbounds [256 x i8], [256 x i8]* %4, i64 0, i64 0
  store i8* %14, i8** %5, align 8
  br label %15

15:                                               ; preds = %76, %11
  %16 = load i8*, i8** %5, align 8
  %17 = load i8, i8* %16, align 1
  %18 = sext i8 %17 to i32
  %19 = icmp ne i32 %18, 0
  br i1 %19, label %20, label %79

20:                                               ; preds = %15
  %21 = load i8*, i8** %5, align 8
  %22 = load i8, i8* %21, align 1
  %23 = sext i8 %22 to i32
  %24 = icmp eq i32 %23, 65
  br i1 %24, label %25, label %33

25:                                               ; preds = %20
  %26 = load i8*, i8** %5, align 8
  %27 = load i8, i8* %26, align 1
  %28 = sext i8 %27 to i32
  %29 = sub nsw i32 %28, 65
  %30 = add nsw i32 %29, 84
  %31 = trunc i32 %30 to i8
  %32 = load i8*, i8** %5, align 8
  store i8 %31, i8* %32, align 1
  br label %75

33:                                               ; preds = %20
  %34 = load i8*, i8** %5, align 8
  %35 = load i8, i8* %34, align 1
  %36 = sext i8 %35 to i32
  %37 = icmp eq i32 %36, 84
  br i1 %37, label %38, label %46

38:                                               ; preds = %33
  %39 = load i8*, i8** %5, align 8
  %40 = load i8, i8* %39, align 1
  %41 = sext i8 %40 to i32
  %42 = sub nsw i32 %41, 84
  %43 = add nsw i32 %42, 65
  %44 = trunc i32 %43 to i8
  %45 = load i8*, i8** %5, align 8
  store i8 %44, i8* %45, align 1
  br label %74

46:                                               ; preds = %33
  %47 = load i8*, i8** %5, align 8
  %48 = load i8, i8* %47, align 1
  %49 = sext i8 %48 to i32
  %50 = icmp eq i32 %49, 67
  br i1 %50, label %51, label %59

51:                                               ; preds = %46
  %52 = load i8*, i8** %5, align 8
  %53 = load i8, i8* %52, align 1
  %54 = sext i8 %53 to i32
  %55 = sub nsw i32 %54, 67
  %56 = add nsw i32 %55, 71
  %57 = trunc i32 %56 to i8
  %58 = load i8*, i8** %5, align 8
  store i8 %57, i8* %58, align 1
  br label %73

59:                                               ; preds = %46
  %60 = load i8*, i8** %5, align 8
  %61 = load i8, i8* %60, align 1
  %62 = sext i8 %61 to i32
  %63 = icmp eq i32 %62, 71
  br i1 %63, label %64, label %72

64:                                               ; preds = %59
  %65 = load i8*, i8** %5, align 8
  %66 = load i8, i8* %65, align 1
  %67 = sext i8 %66 to i32
  %68 = sub nsw i32 %67, 71
  %69 = add nsw i32 %68, 67
  %70 = trunc i32 %69 to i8
  %71 = load i8*, i8** %5, align 8
  store i8 %70, i8* %71, align 1
  br label %72

72:                                               ; preds = %64, %59
  br label %73

73:                                               ; preds = %72, %51
  br label %74

74:                                               ; preds = %73, %38
  br label %75

75:                                               ; preds = %74, %25
  br label %76

76:                                               ; preds = %75
  %77 = load i8*, i8** %5, align 8
  %78 = getelementptr inbounds i8, i8* %77, i32 1
  store i8* %78, i8** %5, align 8
  br label %15

79:                                               ; preds = %15
  %80 = getelementptr inbounds [256 x i8], [256 x i8]* %4, i64 0, i64 0
  %81 = call i32 (i8*, ...) @printf(i8* getelementptr inbounds ([4 x i8], [4 x i8]* @.str.2, i64 0, i64 0), i8* %80)
  br label %82

82:                                               ; preds = %79
  %83 = load i32, i32* %3, align 4
  %84 = add nsw i32 %83, 1
  store i32 %84, i32* %3, align 4
  br label %7

85:                                               ; preds = %7
  ret i32 0
}

declare dso_local i32 @__isoc99_scanf(i8*, ...) #1

declare dso_local i32 @printf(i8*, ...) #1


!llvm.module.flags = !{!0}
!llvm.ident = !{!1}

!0 = !{i32 1, !"wchar_size", i32 4}
!1 = !{!"clang version 10.0.0-4ubuntu1 "}
